target datalayout = "e-m:e-p270:32:32-p271:32:32-p272:64:64-i64:64-i128:128-f80:128-n8:16:32:64-S128"
target triple = "x86_64-pc-linux-gnu"

%struct.TCGContext = type { ptr, ptr, ptr, ptr, ptr, i32, i32, i32, i32, i32, i32, i32, i8, i8, i8, i32, i32, i64, i64, i64, ptr, ptr, ptr, ptr, ptr, i64, ptr, ptr, ptr, ptr, %struct.anon, ptr, ptr, ptr, ptr, ptr, [6 x ptr], [6 x %struct.TCGTempSet], [512 x %struct.TCGTemp], %union.anon, %union.anon, %struct.anon.0, ptr, [32 x ptr], [512 x i16], ptr, [1 x %struct.__jmp_buf_tag] }
%struct.anon = type { ptr, ptr }
%struct.TCGTempSet = type { [8 x i64] }
%struct.TCGTemp = type { i64, i64, ptr, i64, ptr, i64, ptr }
%union.anon = type { %struct.QTailQLink }
%struct.QTailQLink = type { ptr, ptr }
%struct.anon.0 = type { ptr, ptr }
%struct.__jmp_buf_tag = type { [8 x i64], i32, %struct.__sigset_t }
%struct.__sigset_t = type { [16 x i64] }
%struct.TranslationBlock = type { i64, i64, i32, i32, i16, i16, %struct.tb_tc, %struct.IntervalTreeNode, %struct.QemuSpin, [2 x i16], [2 x i16], [2 x i64], i64, [2 x i64], [2 x i64] }
%struct.tb_tc = type { ptr, i64 }
%struct.IntervalTreeNode = type { %struct.RBNode, i64, i64, i64 }
%struct.RBNode = type { i64, ptr, ptr }
%struct.QemuSpin = type { i32 }

@tcg_ctx = external thread_local global ptr, align 8
@.str = private unnamed_addr constant [26 x i8] c"../qemu/tcg/tcg-op-ldst.c\00", align 1
@__func__.tcg_canonicalize_memop = private unnamed_addr constant [23 x i8] c"tcg_canonicalize_memop\00", align 1
@tcg_use_softmmu = external global i8, align 1

; Function Attrs: nounwind sspstrong uwtable
define internal void @check_max_alignment(i32 noundef %0) #0 {
  %2 = alloca i32, align 4
  store i32 %0, ptr %2, align 4
  %3 = load i8, ptr @tcg_use_softmmu, align 1, !range !5, !noundef !6
  %4 = trunc i8 %3 to i1
  br i1 %4, label %5, label %18

5:                                                ; preds = %1
  br label %6

6:                                                ; preds = %5
  %7 = load i32, ptr %2, align 4
  %8 = add i32 %7, 5
  %9 = call align 8 ptr @llvm.threadlocal.address.p0(ptr align 8 @tcg_ctx)
  %10 = load ptr, ptr %9, align 8
  %11 = getelementptr inbounds nuw %struct.TCGContext, ptr %10, i32 0, i32 12
  %12 = load i8, ptr %11, align 4
  %13 = zext i8 %12 to i32
  %14 = icmp ule i32 %8, %13
  br i1 %14, label %16, label %15

15:                                               ; preds = %6
  unreachable

16:                                               ; preds = %6
  br label %17

17:                                               ; preds = %16
  br label %18

18:                                               ; preds = %17, %1
  ret void
}

; Function Attrs: inlinehint nounwind sspstrong uwtable
define internal i32 @memop_alignment_bits(i32 noundef %0) #5 {
  %2 = alloca i32, align 4
  %3 = alloca i32, align 4
  store i32 %0, ptr %2, align 4
  call void @llvm.lifetime.start.p0(i64 4, ptr %3) #7
  %4 = load i32, ptr %2, align 4
  %5 = and i32 %4, 224
  store i32 %5, ptr %3, align 4
  %6 = load i32, ptr %3, align 4
  %7 = icmp eq i32 %6, 0
  br i1 %7, label %8, label %9

8:                                                ; preds = %1
  store i32 0, ptr %3, align 4
  br label %19

9:                                                ; preds = %1
  %10 = load i32, ptr %3, align 4
  %11 = icmp eq i32 %10, 224
  br i1 %11, label %12, label %15

12:                                               ; preds = %9
  %13 = load i32, ptr %2, align 4
  %14 = and i32 %13, 7
  store i32 %14, ptr %3, align 4
  br label %18

15:                                               ; preds = %9
  %16 = load i32, ptr %3, align 4
  %17 = lshr i32 %16, 5
  store i32 %17, ptr %3, align 4
  br label %18

18:                                               ; preds = %15, %12
  br label %19

19:                                               ; preds = %18, %8
  %20 = load i32, ptr %3, align 4
  call void @llvm.lifetime.end.p0(i64 4, ptr %3) #7
  ret i32 %20
}

; Function Attrs: nounwind sspstrong uwtable
define internal i32 @tcg_canonicalize_memop(i32 noundef %0, i1 noundef zeroext %1, i1 noundef zeroext %2) #0 {
  %4 = alloca i32, align 4
  %5 = alloca i8, align 1
  %6 = alloca i8, align 1
  %7 = alloca i32, align 4
  store i32 %0, ptr %4, align 4
  %8 = zext i1 %1 to i8
  store i8 %8, ptr %5, align 1
  %9 = zext i1 %2 to i8
  store i8 %9, ptr %6, align 1
  call void @llvm.lifetime.start.p0(i64 4, ptr %7) #7
  %10 = load i32, ptr %4, align 4
  %11 = call i32 @memop_alignment_bits(i32 noundef %10)
  store i32 %11, ptr %7, align 4
  %12 = load i32, ptr %7, align 4
  call void @check_max_alignment(i32 noundef %12)
  %13 = load i32, ptr %7, align 4
  %14 = load i32, ptr %4, align 4
  %15 = and i32 %14, 7
  %16 = icmp eq i32 %13, %15
  br i1 %16, label %17, label %21

17:                                               ; preds = %3
  %18 = load i32, ptr %4, align 4
  %19 = and i32 %18, -225
  %20 = or i32 %19, 224
  store i32 %20, ptr %4, align 4
  br label %21

21:                                               ; preds = %17, %3
  %22 = load i32, ptr %4, align 4
  %23 = and i32 %22, 7
  switch i32 %23, label %41 [
    i32 0, label %24
    i32 1, label %45
    i32 2, label %27
    i32 3, label %34
  ]

24:                                               ; preds = %21
  %25 = load i32, ptr %4, align 4
  %26 = and i32 %25, -17
  store i32 %26, ptr %4, align 4
  br label %45

27:                                               ; preds = %21
  %28 = load i8, ptr %5, align 1, !range !5, !noundef !6
  %29 = trunc i8 %28 to i1
  br i1 %29, label %33, label %30

30:                                               ; preds = %27
  %31 = load i32, ptr %4, align 4
  %32 = and i32 %31, -9
  store i32 %32, ptr %4, align 4
  br label %33

33:                                               ; preds = %30, %27
  br label %45

34:                                               ; preds = %21
  %35 = load i8, ptr %5, align 1, !range !5, !noundef !6
  %36 = trunc i8 %35 to i1
  br i1 %36, label %37, label %40

37:                                               ; preds = %34
  %38 = load i32, ptr %4, align 4
  %39 = and i32 %38, -9
  store i32 %39, ptr %4, align 4
  br label %45

40:                                               ; preds = %34
  br label %41

41:                                               ; preds = %21, %40
  br label %42

42:                                               ; preds = %41
  call void @g_assertion_message_expr(ptr noundef null, ptr noundef @.str, i32 noundef 76, ptr noundef @__func__.tcg_canonicalize_memop, ptr noundef null) #8
  unreachable

43:                                               ; No predecessors!
  br label %44

44:                                               ; preds = %43
  br label %45

45:                                               ; preds = %44, %37, %33, %21, %24
  %46 = load i8, ptr %6, align 1, !range !5, !noundef !6
  %47 = trunc i8 %46 to i1
  br i1 %47, label %48, label %51

48:                                               ; preds = %45
  %49 = load i32, ptr %4, align 4
  %50 = and i32 %49, -9
  store i32 %50, ptr %4, align 4
  br label %51

51:                                               ; preds = %48, %45
  %52 = call align 8 ptr @llvm.threadlocal.address.p0(ptr align 8 @tcg_ctx)
  %53 = load ptr, ptr %52, align 8
  %54 = getelementptr inbounds nuw %struct.TCGContext, ptr %53, i32 0, i32 21
  %55 = load ptr, ptr %54, align 8
  %56 = getelementptr inbounds nuw %struct.TranslationBlock, ptr %55, i32 0, i32 3
  %57 = load i32, ptr %56, align 4
  %58 = and i32 %57, 32768
  %59 = icmp ne i32 %58, 0
  br i1 %59, label %65, label %60

60:                                               ; preds = %51
  %61 = load i32, ptr %4, align 4
  %62 = and i32 %61, -1793
  store i32 %62, ptr %4, align 4
  %63 = load i32, ptr %4, align 4
  %64 = or i32 %63, 1280
  store i32 %64, ptr %4, align 4
  br label %65

65:                                               ; preds = %60, %51
  %66 = load i32, ptr %4, align 4
  call void @llvm.lifetime.end.p0(i64 4, ptr %7) #7
  ret i32 %66
}

; Function Attrs: nounwind sspstrong uwtable
define internal void @do_nonatomic_op_i64(ptr noundef %0, ptr noundef %1, ptr noundef %2, i64 noundef %3, i32 noundef %4, i1 noundef zeroext %5, ptr noundef %6) #0 {
  %8 = alloca ptr, align 8
  %9 = alloca ptr, align 8
  %10 = alloca ptr, align 8
  %11 = alloca i64, align 8
  %12 = alloca i32, align 4
  %13 = alloca i8, align 1
  %14 = alloca ptr, align 8
  %15 = alloca ptr, align 8
  %16 = alloca ptr, align 8
  store ptr %0, ptr %8, align 8
  store ptr %1, ptr %9, align 8
  store ptr %2, ptr %10, align 8
  store i64 %3, ptr %11, align 8
  store i32 %4, ptr %12, align 4
  %17 = zext i1 %5 to i8
  store i8 %17, ptr %13, align 1
  store ptr %6, ptr %14, align 8
  call void @llvm.lifetime.start.p0(i64 8, ptr %15) #7
  %18 = call ptr @tcg_temp_ebb_new_i64()
  store ptr %18, ptr %15, align 8
  call void @llvm.lifetime.start.p0(i64 8, ptr %16) #7
  %19 = call ptr @tcg_temp_ebb_new_i64()
  store ptr %19, ptr %16, align 8
  %20 = load i32, ptr %12, align 4
  %21 = call i32 @tcg_canonicalize_memop(i32 noundef %20, i1 noundef zeroext true, i1 noundef zeroext false)
  store i32 %21, ptr %12, align 4
  %22 = load ptr, ptr %15, align 8
  %23 = load ptr, ptr %9, align 8
  %24 = load i64, ptr %11, align 8
  %25 = load i32, ptr %12, align 4
  call void @tcg_gen_qemu_ld_i64_int(ptr noundef %22, ptr noundef %23, i64 noundef %24, i32 noundef %25)
  %26 = load ptr, ptr %16, align 8
  %27 = load ptr, ptr %10, align 8
  %28 = load i32, ptr %12, align 4
  call void @tcg_gen_ext_i64(ptr noundef %26, ptr noundef %27, i32 noundef %28)
  %29 = load ptr, ptr %14, align 8
  %30 = load ptr, ptr %16, align 8
  %31 = load ptr, ptr %15, align 8
  %32 = load ptr, ptr %16, align 8
  call void %29(ptr noundef %30, ptr noundef %31, ptr noundef %32)
  %33 = load ptr, ptr %16, align 8
  %34 = load ptr, ptr %9, align 8
  %35 = load i64, ptr %11, align 8
  %36 = load i32, ptr %12, align 4
  call void @tcg_gen_qemu_st_i64_int(ptr noundef %33, ptr noundef %34, i64 noundef %35, i32 noundef %36)
  %37 = load ptr, ptr %8, align 8
  %38 = load i8, ptr %13, align 1, !range !5, !noundef !6
  %39 = trunc i8 %38 to i1
  br i1 %39, label %40, label %42

40:                                               ; preds = %7
  %41 = load ptr, ptr %16, align 8
  br label %44

42:                                               ; preds = %7
  %43 = load ptr, ptr %15, align 8
  br label %44

44:                                               ; preds = %42, %40
  %45 = phi ptr [ %41, %40 ], [ %43, %42 ]
  %46 = load i32, ptr %12, align 4
  call void @tcg_gen_ext_i64(ptr noundef %37, ptr noundef %45, i32 noundef %46)
  %47 = load ptr, ptr %15, align 8
  call void @tcg_temp_free_i64(ptr noundef %47)
  %48 = load ptr, ptr %16, align 8
  call void @tcg_temp_free_i64(ptr noundef %48)
  call void @llvm.lifetime.end.p0(i64 8, ptr %16) #7
  call void @llvm.lifetime.end.p0(i64 8, ptr %15) #7
  ret void
}

; Function Attrs: nounwind sspstrong uwtable
define dso_local void @tcg_gen_atomic_fetch_smax_i64_chk(ptr noundef %0, ptr noundef %1, ptr noundef %2, i64 noundef %3, i32 noundef %4, i32 noundef %5) #0 {
  %7 = alloca ptr, align 8
  %8 = alloca ptr, align 8
  %9 = alloca ptr, align 8
  %10 = alloca i64, align 8
  %11 = alloca i32, align 4
  %12 = alloca i32, align 4
  store ptr %0, ptr %7, align 8
  store ptr %1, ptr %8, align 8
  store ptr %2, ptr %9, align 8
  store i64 %3, ptr %10, align 8
  store i32 %4, ptr %11, align 4
  store i32 %5, ptr %12, align 4
  br label %13

13:                                               ; preds = %6
  %14 = load i32, ptr %12, align 4
  %15 = call align 8 ptr @llvm.threadlocal.address.p0(ptr align 8 @tcg_ctx)
  %16 = load ptr, ptr %15, align 8
  %17 = getelementptr inbounds nuw %struct.TCGContext, ptr %16, i32 0, i32 10
  %18 = load i32, ptr %17, align 4
  %19 = icmp eq i32 %14, %18
  br i1 %19, label %21, label %20

20:                                               ; preds = %13
  unreachable

21:                                               ; preds = %13
  br label %22

22:                                               ; preds = %21
  br label %23

23:                                               ; preds = %22
  %24 = load i32, ptr %11, align 4
  %25 = and i32 %24, 7
  %26 = icmp ule i32 %25, 3
  br i1 %26, label %28, label %27

27:                                               ; preds = %23
  unreachable

28:                                               ; preds = %23
  br label %29

29:                                               ; preds = %28
  %30 = call align 8 ptr @llvm.threadlocal.address.p0(ptr align 8 @tcg_ctx)
  %31 = load ptr, ptr %30, align 8
  %32 = getelementptr inbounds nuw %struct.TCGContext, ptr %31, i32 0, i32 21
  %33 = load ptr, ptr %32, align 8
  %34 = getelementptr inbounds nuw %struct.TranslationBlock, ptr %33, i32 0, i32 3
  %35 = load i32, ptr %34, align 4
  %36 = and i32 %35, 32768
  %37 = icmp ne i32 %36, 0
  br i1 %37, label %38, label %44

38:                                               ; preds = %29
  %39 = load ptr, ptr %7, align 8
  %40 = load ptr, ptr %8, align 8
  %41 = load ptr, ptr %9, align 8
  %42 = load i64, ptr %10, align 8
  %43 = load i32, ptr %11, align 4
  call void @do_atomic_op_i64(ptr noundef %39, ptr noundef %40, ptr noundef %41, i64 noundef %42, i32 noundef %43, ptr noundef @table_fetch_smax)
  br label %50

44:                                               ; preds = %29
  %45 = load ptr, ptr %7, align 8
  %46 = load ptr, ptr %8, align 8
  %47 = load ptr, ptr %9, align 8
  %48 = load i64, ptr %10, align 8
  %49 = load i32, ptr %11, align 4
  call void @do_nonatomic_op_i64(ptr noundef %45, ptr noundef %46, ptr noundef %47, i64 noundef %48, i32 noundef %49, i1 noundef zeroext false, ptr noundef @tcg_gen_smax_i64)
  br label %50

50:                                               ; preds = %44, %38
  ret void
}